	.file	"scanner.c"
	.text
.Ltext0:
	.comm	scanner,24,16
	.type	makeToken, @function
makeToken:
.LFB0:
	.file 1 "Tokenization/scanner/scanner.h"
	.loc 1 193 39
	.cfi_startproc
	endbr64
	pushq	%rbp
	.cfi_def_cfa_offset 16
	.cfi_offset 6, -16
	movq	%rsp, %rbp
	.cfi_def_cfa_register 6
	movq	%rdi, -40(%rbp)
	movl	%esi, -44(%rbp)
	.loc 1 195 16
	movl	-44(%rbp), %eax
	movl	%eax, -32(%rbp)
	.loc 1 196 26
	movq	scanner(%rip), %rax
	.loc 1 196 17
	movq	%rax, -24(%rbp)
	.loc 1 197 37
	movq	8+scanner(%rip), %rdx
	.loc 1 197 55
	movq	scanner(%rip), %rax
	.loc 1 197 46
	subq	%rax, %rdx
	movq	%rdx, %rax
	.loc 1 197 18
	movw	%ax, -16(%rbp)
	.loc 1 198 25
	movzwl	16+scanner(%rip), %eax
	.loc 1 198 16
	movw	%ax, -14(%rbp)
	.loc 1 199 12
	movq	-40(%rbp), %rcx
	movq	-32(%rbp), %rax
	movq	-24(%rbp), %rdx
	movq	%rax, (%rcx)
	movq	%rdx, 8(%rcx)
	movq	-16(%rbp), %rax
	movq	%rax, 16(%rcx)
	.loc 1 200 1
	movq	-40(%rbp), %rax
	popq	%rbp
	.cfi_def_cfa 7, 8
	ret
	.cfi_endproc
.LFE0:
	.size	makeToken, .-makeToken
	.comm	token,24,16
	.globl	initScanner
	.type	initScanner, @function
initScanner:
.LFB1:
	.file 2 "Tokenization/scanner/scanner.c"
	.loc 2 17 39
	.cfi_startproc
	endbr64
	pushq	%rbp
	.cfi_def_cfa_offset 16
	.cfi_offset 6, -16
	movq	%rsp, %rbp
	.cfi_def_cfa_register 6
	movq	%rdi, -8(%rbp)
	.loc 2 18 19
	movq	-8(%rbp), %rax
	movq	%rax, scanner(%rip)
	.loc 2 19 21
	movq	-8(%rbp), %rax
	movq	%rax, 8+scanner(%rip)
	.loc 2 20 18
	movw	$1, 16+scanner(%rip)
	.loc 2 21 1
	nop
	popq	%rbp
	.cfi_def_cfa 7, 8
	ret
	.cfi_endproc
.LFE1:
	.size	initScanner, .-initScanner
	.type	isAlpha, @function
isAlpha:
.LFB2:
	.loc 2 23 29
	.cfi_startproc
	endbr64
	pushq	%rbp
	.cfi_def_cfa_offset 16
	.cfi_offset 6, -16
	movq	%rsp, %rbp
	.cfi_def_cfa_register 6
	movl	%edi, %eax
	movb	%al, -4(%rbp)
	.loc 2 24 61
	cmpb	$96, -4(%rbp)
	jle	.L5
	.loc 2 24 22 discriminator 1
	cmpb	$122, -4(%rbp)
	jle	.L6
.L5:
	.loc 2 24 35 discriminator 4
	cmpb	$64, -4(%rbp)
	jle	.L7
	.loc 2 24 48 discriminator 5
	cmpb	$90, -4(%rbp)
	jle	.L6
.L7:
	.loc 2 24 61 discriminator 8
	cmpb	$95, -4(%rbp)
	jne	.L8
.L6:
	.loc 2 24 61 is_stmt 0 discriminator 9
	movl	$1, %eax
	jmp	.L9
.L8:
	.loc 2 24 61 discriminator 10
	movl	$0, %eax
.L9:
	.loc 2 24 61 discriminator 12
	andl	$1, %eax
	.loc 2 25 1 is_stmt 1 discriminator 12
	popq	%rbp
	.cfi_def_cfa 7, 8
	ret
	.cfi_endproc
.LFE2:
	.size	isAlpha, .-isAlpha
	.type	isDigit, @function
isDigit:
.LFB3:
	.loc 2 27 29
	.cfi_startproc
	endbr64
	pushq	%rbp
	.cfi_def_cfa_offset 16
	.cfi_offset 6, -16
	movq	%rsp, %rbp
	.cfi_def_cfa_register 6
	movl	%edi, %eax
	movb	%al, -4(%rbp)
	.loc 2 28 21
	cmpb	$47, -4(%rbp)
	jle	.L12
	.loc 2 28 21 is_stmt 0 discriminator 1
	cmpb	$57, -4(%rbp)
	jg	.L12
	.loc 2 28 21 discriminator 3
	movl	$1, %eax
	jmp	.L13
.L12:
	.loc 2 28 21 discriminator 4
	movl	$0, %eax
.L13:
	.loc 2 28 21 discriminator 6
	andl	$1, %eax
	.loc 2 29 1 is_stmt 1 discriminator 6
	popq	%rbp
	.cfi_def_cfa 7, 8
	ret
	.cfi_endproc
.LFE3:
	.size	isDigit, .-isDigit
	.type	isAtEnd, @function
isAtEnd:
.LFB4:
	.loc 2 31 21
	.cfi_startproc
	endbr64
	pushq	%rbp
	.cfi_def_cfa_offset 16
	.cfi_offset 6, -16
	movq	%rsp, %rbp
	.cfi_def_cfa_register 6
	.loc 2 32 20
	movq	8+scanner(%rip), %rax
	.loc 2 32 12
	movzbl	(%rax), %eax
	.loc 2 32 29
	testb	%al, %al
	sete	%al
	.loc 2 33 1
	popq	%rbp
	.cfi_def_cfa 7, 8
	ret
	.cfi_endproc
.LFE4:
	.size	isAtEnd, .-isAtEnd
	.type	checkChar, @function
checkChar:
.LFB5:
	.loc 2 40 26
	.cfi_startproc
	endbr64
	pushq	%rbp
	.cfi_def_cfa_offset 16
	.cfi_offset 6, -16
	movq	%rsp, %rbp
	.cfi_def_cfa_register 6
	.loc 2 41 20
	movq	8+scanner(%rip), %rax
	.loc 2 41 12
	movzbl	(%rax), %eax
	.loc 2 42 1
	popq	%rbp
	.cfi_def_cfa 7, 8
	ret
	.cfi_endproc
.LFE5:
	.size	checkChar, .-checkChar
	.type	checkNextChar, @function
checkNextChar:
.LFB6:
	.loc 2 44 30
	.cfi_startproc
	endbr64
	pushq	%rbp
	.cfi_def_cfa_offset 16
	.cfi_offset 6, -16
	movq	%rsp, %rbp
	.cfi_def_cfa_register 6
	.loc 2 45 8
	movl	$0, %eax
	call	isAtEnd
	.loc 2 45 7
	testb	%al, %al
	je	.L20
	.loc 2 45 26 discriminator 1
	movl	$0, %eax
	jmp	.L21
.L20:
	.loc 2 46 19
	movq	8+scanner(%rip), %rax
	.loc 2 46 27
	addq	$1, %rax
	movzbl	(%rax), %eax
.L21:
	.loc 2 47 1
	popq	%rbp
	.cfi_def_cfa 7, 8
	ret
	.cfi_endproc
.LFE6:
	.size	checkNextChar, .-checkNextChar
	.type	nextChar, @function
nextChar:
.LFB7:
	.loc 2 49 25
	.cfi_startproc
	endbr64
	pushq	%rbp
	.cfi_def_cfa_offset 16
	.cfi_offset 6, -16
	movq	%rsp, %rbp
	.cfi_def_cfa_register 6
	subq	$16, %rsp
	.loc 2 50 16
	movl	$0, %eax
	call	checkChar
	movb	%al, -1(%rbp)
	.loc 2 51 12
	movq	8+scanner(%rip), %rax
	.loc 2 51 20
	addq	$1, %rax
	movq	%rax, 8+scanner(%rip)
	.loc 2 52 7
	cmpb	$10, -1(%rbp)
	jne	.L23
	.loc 2 52 26 discriminator 1
	movzwl	16+scanner(%rip), %eax
	.loc 2 52 31 discriminator 1
	addl	$1, %eax
	movw	%ax, 16+scanner(%rip)
.L23:
	.loc 2 53 12
	movzbl	-1(%rbp), %eax
	.loc 2 54 1
	leave
	.cfi_def_cfa 7, 8
	ret
	.cfi_endproc
.LFE7:
	.size	nextChar, .-nextChar
	.type	compareChar, @function
compareChar:
.LFB8:
	.loc 2 56 33
	.cfi_startproc
	endbr64
	pushq	%rbp
	.cfi_def_cfa_offset 16
	.cfi_offset 6, -16
	movq	%rsp, %rbp
	.cfi_def_cfa_register 6
	subq	$8, %rsp
	movl	%edi, %eax
	movb	%al, -4(%rbp)
	.loc 2 57 8
	movl	$0, %eax
	call	checkChar
	.loc 2 57 7
	cmpb	%al, -4(%rbp)
	je	.L26
	.loc 2 57 32 discriminator 1
	movl	$0, %eax
	jmp	.L27
.L26:
	.loc 2 58 5
	movl	$0, %eax
	call	nextChar
	.loc 2 59 11
	movl	$1, %eax
.L27:
	.loc 2 60 1
	leave
	.cfi_def_cfa 7, 8
	ret
	.cfi_endproc
.LFE8:
	.size	compareChar, .-compareChar
	.type	makeTwoCharToken, @function
makeTwoCharToken:
.LFB9:
	.loc 2 74 70
	.cfi_startproc
	endbr64
	pushq	%rbp
	.cfi_def_cfa_offset 16
	.cfi_offset 6, -16
	movq	%rsp, %rbp
	.cfi_def_cfa_register 6
	subq	$48, %rsp
	movq	%rdi, -24(%rbp)
	movl	%esi, %eax
	movl	%edx, -32(%rbp)
	movl	%ecx, -36(%rbp)
	movb	%al, -28(%rbp)
	.loc 2 74 70
	movq	%fs:40, %rax
	movq	%rax, -8(%rbp)
	xorl	%eax, %eax
	.loc 2 75 22
	movsbl	-28(%rbp), %eax
	movl	%eax, %edi
	call	compareChar
	.loc 2 75 12
	testb	%al, %al
	je	.L29
	.loc 2 75 12 is_stmt 0 discriminator 1
	movl	-32(%rbp), %eax
	jmp	.L30
.L29:
	.loc 2 75 12 discriminator 2
	movl	-36(%rbp), %eax
.L30:
	.loc 2 75 12 discriminator 4
	movq	-24(%rbp), %rdx
	movl	%eax, %esi
	movq	%rdx, %rdi
	call	makeToken
	.loc 2 76 1 is_stmt 1 discriminator 4
	movq	-8(%rbp), %rax
	xorq	%fs:40, %rax
	je	.L32
	.loc 2 76 1 is_stmt 0
	call	__stack_chk_fail@PLT
.L32:
	movq	-24(%rbp), %rax
	leave
	.cfi_def_cfa 7, 8
	ret
	.cfi_endproc
.LFE9:
	.size	makeTwoCharToken, .-makeTwoCharToken
	.type	errorToken, @function
errorToken:
.LFB10:
	.loc 2 78 47 is_stmt 1
	.cfi_startproc
	endbr64
	pushq	%rbp
	.cfi_def_cfa_offset 16
	.cfi_offset 6, -16
	movq	%rsp, %rbp
	.cfi_def_cfa_register 6
	subq	$48, %rsp
	movq	%rdi, -40(%rbp)
	movq	%rsi, -48(%rbp)
	.loc 2 80 16
	movl	$122, -32(%rbp)
	.loc 2 81 17
	movq	-48(%rbp), %rax
	movq	%rax, -24(%rbp)
	.loc 2 82 29
	movq	-48(%rbp), %rax
	movq	%rax, %rdi
	call	strlen@PLT
	.loc 2 82 18
	movw	%ax, -16(%rbp)
	.loc 2 83 25
	movzwl	16+scanner(%rip), %eax
	.loc 2 83 16
	movw	%ax, -14(%rbp)
	.loc 2 84 12
	movq	-40(%rbp), %rcx
	movq	-32(%rbp), %rax
	movq	-24(%rbp), %rdx
	movq	%rax, (%rcx)
	movq	%rdx, 8(%rcx)
	movq	-16(%rbp), %rax
	movq	%rax, 16(%rcx)
	.loc 2 85 1
	movq	-40(%rbp), %rax
	leave
	.cfi_def_cfa 7, 8
	ret
	.cfi_endproc
.LFE10:
	.size	errorToken, .-errorToken
	.section	.rodata
.LC0:
	.string	"char: %d\n"
	.text
	.type	invalidToken, @function
invalidToken:
.LFB11:
	.loc 2 87 36
	.cfi_startproc
	endbr64
	pushq	%rbp
	.cfi_def_cfa_offset 16
	.cfi_offset 6, -16
	movq	%rsp, %rbp
	.cfi_def_cfa_register 6
	subq	$64, %rsp
	movl	%edi, %eax
	movb	%al, -52(%rbp)
	.loc 2 87 36
	movq	%fs:40, %rax
	movq	%rax, -8(%rbp)
	xorl	%eax, %eax
	.loc 2 89 5
	movabsq	$8386658464824651349, %rax
	movabsq	$7021781869991584869, %rdx
	movq	%rax, -48(%rbp)
	movq	%rdx, -40(%rbp)
	movabsq	$4838871760032330851, %rax
	movq	%rax, -32(%rbp)
	movw	$39, -24(%rbp)
	.loc 2 90 12
	leaq	-48(%rbp), %rax
	movq	%rax, %rdi
	call	strlen@PLT
	.loc 2 90 27
	leaq	-2(%rax), %rdx
	.loc 2 90 32
	movzbl	-52(%rbp), %eax
	movb	%al, -48(%rbp,%rdx)
	.loc 2 92 5
	movzbl	-52(%rbp), %eax
	movl	%eax, %esi
	leaq	.LC0(%rip), %rdi
	movl	$0, %eax
	call	printf@PLT
	.loc 2 93 5
	leaq	-48(%rbp), %rax
	movq	%rax, %rdi
	call	puts@PLT
	.loc 2 94 1
	nop
	movq	-8(%rbp), %rax
	xorq	%fs:40, %rax
	je	.L36
	call	__stack_chk_fail@PLT
.L36:
	leave
	.cfi_def_cfa 7, 8
	ret
	.cfi_endproc
.LFE11:
	.size	invalidToken, .-invalidToken
	.type	skipLineComment, @function
skipLineComment:
.LFB12:
	.loc 2 96 30
	.cfi_startproc
	endbr64
	pushq	%rbp
	.cfi_def_cfa_offset 16
	.cfi_offset 6, -16
	movq	%rsp, %rbp
	.cfi_def_cfa_register 6
	.loc 2 97 10
	jmp	.L38
.L40:
	.loc 2 98 9
	movl	$0, %eax
	call	nextChar
.L38:
	.loc 2 97 11
	movl	$0, %eax
	call	checkChar
	.loc 2 97 10
	cmpb	$10, %al
	je	.L41
	.loc 2 97 35 discriminator 1
	movl	$0, %eax
	call	isAtEnd
	.loc 2 97 34 discriminator 1
	xorl	$1, %eax
	.loc 2 97 31 discriminator 1
	testb	%al, %al
	jne	.L40
.L41:
	.loc 2 100 1
	nop
	popq	%rbp
	.cfi_def_cfa 7, 8
	ret
	.cfi_endproc
.LFE12:
	.size	skipLineComment, .-skipLineComment
	.section	.rodata
.LC1:
	.string	"Unterminated block comment."
	.text
	.type	skipBlockComment, @function
skipBlockComment:
.LFB13:
	.loc 2 102 31
	.cfi_startproc
	endbr64
	pushq	%rbp
	.cfi_def_cfa_offset 16
	.cfi_offset 6, -16
	movq	%rsp, %rbp
	.cfi_def_cfa_register 6
	subq	$48, %rsp
	.loc 2 102 31
	movq	%fs:40, %rax
	movq	%rax, -8(%rbp)
	xorl	%eax, %eax
	.loc 2 103 5
	movl	$0, %eax
	call	nextChar
	.loc 2 104 5
	movl	$0, %eax
	call	nextChar
	.loc 2 105 9
	movl	$1, -12(%rbp)
	.loc 2 106 10
	jmp	.L43
.L48:
	.loc 2 108 12
	movl	$0, %eax
	call	isAtEnd
	.loc 2 108 11
	testb	%al, %al
	je	.L44
	.loc 2 109 13
	leaq	-48(%rbp), %rax
	leaq	.LC1(%rip), %rsi
	movq	%rax, %rdi
	call	errorToken
	.loc 2 109 56
	jmp	.L42
.L44:
	.loc 2 112 12
	movl	$0, %eax
	call	checkChar
	.loc 2 112 11
	cmpb	$35, %al
	jne	.L46
	.loc 2 112 34 discriminator 1
	movl	$0, %eax
	call	checkNextChar
	.loc 2 112 31 discriminator 1
	cmpb	$124, %al
	jne	.L46
	.loc 2 113 13
	movl	$0, %eax
	call	nextChar
	.loc 2 114 13
	movl	$0, %eax
	call	nextChar
	.loc 2 115 20
	addl	$1, -12(%rbp)
	.loc 2 116 13
	jmp	.L43
.L46:
	.loc 2 119 12
	movl	$0, %eax
	call	checkChar
	.loc 2 119 11
	cmpb	$124, %al
	jne	.L47
	.loc 2 119 34 discriminator 1
	movl	$0, %eax
	call	checkNextChar
	.loc 2 119 31 discriminator 1
	cmpb	$35, %al
	jne	.L47
	.loc 2 120 13
	movl	$0, %eax
	call	nextChar
	.loc 2 121 13
	movl	$0, %eax
	call	nextChar
	.loc 2 122 20
	subl	$1, -12(%rbp)
	.loc 2 123 13
	jmp	.L43
.L47:
	.loc 2 126 9
	movl	$0, %eax
	call	nextChar
.L43:
	.loc 2 106 10
	cmpl	$0, -12(%rbp)
	jg	.L48
.L42:
	.loc 2 128 1
	movq	-8(%rbp), %rax
	xorq	%fs:40, %rax
	je	.L49
	call	__stack_chk_fail@PLT
.L49:
	leave
	.cfi_def_cfa 7, 8
	ret
	.cfi_endproc
.LFE13:
	.size	skipBlockComment, .-skipBlockComment
	.type	skipWhitespace, @function
skipWhitespace:
.LFB14:
	.loc 2 130 29
	.cfi_startproc
	endbr64
	pushq	%rbp
	.cfi_def_cfa_offset 16
	.cfi_offset 6, -16
	movq	%rsp, %rbp
	.cfi_def_cfa_register 6
	subq	$16, %rsp
.L60:
.LBB2:
	.loc 2 132 20
	movl	$0, %eax
	call	checkChar
	movb	%al, -1(%rbp)
	.loc 2 133 9
	movsbl	-1(%rbp), %eax
	subl	$9, %eax
	cmpl	$26, %eax
	ja	.L61
	movl	%eax, %eax
	leaq	0(,%rax,4), %rdx
	leaq	.L53(%rip), %rax
	movl	(%rdx,%rax), %eax
	cltq
	leaq	.L53(%rip), %rdx
	addq	%rdx, %rax
	notrack jmp	*%rax
	.section	.rodata
	.align 4
	.align 4
.L53:
	.long	.L54-.L53
	.long	.L55-.L53
	.long	.L61-.L53
	.long	.L61-.L53
	.long	.L54-.L53
	.long	.L61-.L53
	.long	.L61-.L53
	.long	.L61-.L53
	.long	.L61-.L53
	.long	.L61-.L53
	.long	.L61-.L53
	.long	.L61-.L53
	.long	.L61-.L53
	.long	.L61-.L53
	.long	.L61-.L53
	.long	.L61-.L53
	.long	.L61-.L53
	.long	.L61-.L53
	.long	.L61-.L53
	.long	.L61-.L53
	.long	.L61-.L53
	.long	.L61-.L53
	.long	.L61-.L53
	.long	.L54-.L53
	.long	.L61-.L53
	.long	.L61-.L53
	.long	.L52-.L53
	.text
.L54:
	.loc 2 137 17
	movl	$0, %eax
	call	nextChar
	.loc 2 138 17
	jmp	.L56
.L55:
	.loc 2 140 24
	movzwl	16+scanner(%rip), %eax
	.loc 2 140 29
	addl	$1, %eax
	movw	%ax, 16+scanner(%rip)
	.loc 2 141 17
	movl	$0, %eax
	call	nextChar
	.loc 2 142 17
	jmp	.L56
.L52:
	.loc 2 144 20
	movl	$0, %eax
	call	checkNextChar
	.loc 2 144 19
	cmpb	$124, %al
	jne	.L57
	.loc 2 144 43 discriminator 1
	movl	$0, %eax
	call	skipBlockComment
	.loc 2 146 17 discriminator 1
	jmp	.L62
.L57:
	.loc 2 145 22
	movl	$0, %eax
	call	skipLineComment
.L62:
	.loc 2 146 17
	nop
.L56:
.LBE2:
	.loc 2 131 12
	jmp	.L60
.L61:
.LBB3:
	.loc 2 148 17
	nop
.LBE3:
	.loc 2 151 1
	leave
	.cfi_def_cfa 7, 8
	ret
	.cfi_endproc
.LFE14:
	.size	skipWhitespace, .-skipWhitespace
	.type	checkKeyword, @function
checkKeyword:
.LFB15:
	.loc 2 155 97
	.cfi_startproc
	endbr64
	pushq	%rbp
	.cfi_def_cfa_offset 16
	.cfi_offset 6, -16
	movq	%rsp, %rbp
	.cfi_def_cfa_register 6
	subq	$32, %rsp
	movl	%esi, %eax
	movq	%rdx, -16(%rbp)
	movl	%ecx, -20(%rbp)
	movl	%edi, %edx
	movw	%dx, -4(%rbp)
	movw	%ax, -8(%rbp)
	.loc 2 156 15
	movq	8+scanner(%rip), %rdx
	.loc 2 156 33
	movq	scanner(%rip), %rax
	.loc 2 156 24
	movq	%rdx, %rcx
	subq	%rax, %rcx
	.loc 2 156 49
	movswl	-4(%rbp), %edx
	movswl	-8(%rbp), %eax
	addl	%edx, %eax
	cltq
	.loc 2 156 7
	cmpq	%rax, %rcx
	jne	.L64
	.loc 2 156 61 discriminator 1
	movswq	-8(%rbp), %rdx
	.loc 2 156 75 discriminator 1
	movq	scanner(%rip), %rcx
	.loc 2 156 61 discriminator 1
	movswq	-4(%rbp), %rax
	.loc 2 156 82 discriminator 1
	addq	%rax, %rcx
	.loc 2 156 61 discriminator 1
	movq	-16(%rbp), %rax
	movq	%rax, %rsi
	movq	%rcx, %rdi
	call	memcmp@PLT
	.loc 2 156 58 discriminator 1
	testl	%eax, %eax
	jne	.L64
	.loc 2 157 16
	movl	-20(%rbp), %eax
	jmp	.L65
.L64:
	.loc 2 159 12
	movl	$117, %eax
.L65:
	.loc 2 160 1
	leave
	.cfi_def_cfa 7, 8
	ret
	.cfi_endproc
.LFE15:
	.size	checkKeyword, .-checkKeyword
	.section	.rodata
.LC2:
	.string	"se"
.LC3:
	.string	"ass"
.LC4:
	.string	"f"
.LC5:
	.string	""
.LC6:
	.string	"um"
.LC7:
	.string	"lse"
.LC8:
	.string	"r"
.LC9:
	.string	"n"
.LC10:
	.string	"t"
.LC11:
	.string	"il"
.LC12:
	.string	"uts"
.LC13:
	.string	"eturn"
.LC14:
	.string	"per"
.LC15:
	.string	"ruct"
.LC16:
	.string	"is"
.LC17:
	.string	"ue"
.LC18:
	.string	"le"
	.text
	.type	identifierType, @function
identifierType:
.LFB16:
	.loc 2 162 34
	.cfi_startproc
	endbr64
	pushq	%rbp
	.cfi_def_cfa_offset 16
	.cfi_offset 6, -16
	movq	%rsp, %rbp
	.cfi_def_cfa_register 6
	.loc 2 163 19
	movq	scanner(%rip), %rax
	.loc 2 163 25
	movzbl	(%rax), %eax
	movsbl	%al, %eax
	subl	$99, %eax
	cmpl	$20, %eax
	ja	.L67
	movl	%eax, %eax
	leaq	0(,%rax,4), %rdx
	leaq	.L69(%rip), %rax
	movl	(%rdx,%rax), %eax
	cltq
	leaq	.L69(%rip), %rdx
	addq	%rdx, %rax
	notrack jmp	*%rax
	.section	.rodata
	.align 4
	.align 4
.L69:
	.long	.L80-.L69
	.long	.L79-.L69
	.long	.L78-.L69
	.long	.L77-.L69
	.long	.L67-.L69
	.long	.L67-.L69
	.long	.L76-.L69
	.long	.L67-.L69
	.long	.L67-.L69
	.long	.L75-.L69
	.long	.L67-.L69
	.long	.L74-.L69
	.long	.L67-.L69
	.long	.L73-.L69
	.long	.L67-.L69
	.long	.L72-.L69
	.long	.L71-.L69
	.long	.L70-.L69
	.long	.L67-.L69
	.long	.L67-.L69
	.long	.L68-.L69
	.text
.L80:
	.loc 2 165 23
	movq	8+scanner(%rip), %rdx
	.loc 2 165 41
	movq	scanner(%rip), %rax
	.loc 2 165 32
	subq	%rax, %rdx
	movq	%rdx, %rax
	.loc 2 165 15
	cmpq	$1, %rax
	jle	.L105
	.loc 2 166 31
	movq	scanner(%rip), %rax
	.loc 2 166 37
	addq	$1, %rax
	movzbl	(%rax), %eax
	movsbl	%al, %eax
	cmpl	$97, %eax
	je	.L82
	cmpl	$108, %eax
	je	.L83
	.loc 2 171 13
	jmp	.L105
.L82:
	.loc 2 167 38
	movl	$94, %ecx
	leaq	.LC2(%rip), %rdx
	movl	$2, %esi
	movl	$2, %edi
	call	checkKeyword
	jmp	.L84
.L83:
	.loc 2 168 38
	movl	$95, %ecx
	leaq	.LC3(%rip), %rdx
	movl	$3, %esi
	movl	$2, %edi
	call	checkKeyword
	jmp	.L84
.L79:
	.loc 2 173 23
	movq	8+scanner(%rip), %rdx
	.loc 2 173 41
	movq	scanner(%rip), %rax
	.loc 2 173 32
	subq	%rax, %rdx
	movq	%rdx, %rax
	.loc 2 173 15
	cmpq	$1, %rax
	jle	.L78
	.loc 2 174 31
	movq	scanner(%rip), %rax
	.loc 2 174 37
	addq	$1, %rax
	movzbl	(%rax), %eax
	movsbl	%al, %eax
	cmpl	$101, %eax
	jne	.L78
	.loc 2 175 38
	movl	$100, %ecx
	leaq	.LC4(%rip), %rdx
	movl	$1, %esi
	movl	$2, %edi
	call	checkKeyword
	jmp	.L84
.L78:
	.loc 2 179 23
	movq	8+scanner(%rip), %rdx
	.loc 2 179 41
	movq	scanner(%rip), %rax
	.loc 2 179 32
	subq	%rax, %rdx
	movq	%rdx, %rax
	.loc 2 179 15
	cmpq	$1, %rax
	jle	.L106
	.loc 2 180 31
	movq	scanner(%rip), %rax
	.loc 2 180 37
	addq	$1, %rax
	movzbl	(%rax), %eax
	movsbl	%al, %eax
	cmpl	$108, %eax
	je	.L86
	cmpl	$110, %eax
	je	.L87
	.loc 2 190 13
	jmp	.L106
.L86:
	.loc 2 181 45 discriminator 3
	movq	scanner(%rip), %rax
	.loc 2 181 51 discriminator 3
	addq	$2, %rax
	movzbl	(%rax), %eax
	movsbl	%al, %eax
	cmpl	$115, %eax
	jne	.L87
	.loc 2 182 49 discriminator 4
	movq	scanner(%rip), %rax
	.loc 2 182 55 discriminator 4
	addq	$3, %rax
	movzbl	(%rax), %eax
	movsbl	%al, %eax
	cmpl	$101, %eax
	je	.L88
	cmpl	$105, %eax
	je	.L89
	jmp	.L87
.L88:
	.loc 2 183 46
	movl	$96, %ecx
	leaq	.LC5(%rip), %rdx
	movl	$0, %esi
	movl	$4, %edi
	call	checkKeyword
	jmp	.L84
.L89:
	.loc 2 184 46
	movl	$97, %ecx
	leaq	.LC4(%rip), %rdx
	movl	$1, %esi
	movl	$4, %edi
	call	checkKeyword
	jmp	.L84
.L87:
	.loc 2 187 38
	movl	$98, %ecx
	leaq	.LC6(%rip), %rdx
	movl	$2, %esi
	movl	$2, %edi
	call	checkKeyword
	jmp	.L84
.L77:
	.loc 2 192 23
	movq	8+scanner(%rip), %rdx
	.loc 2 192 41
	movq	scanner(%rip), %rax
	.loc 2 192 32
	subq	%rax, %rdx
	movq	%rdx, %rax
	.loc 2 192 15
	cmpq	$1, %rax
	jle	.L107
	.loc 2 193 31
	movq	scanner(%rip), %rax
	.loc 2 193 37
	addq	$1, %rax
	movzbl	(%rax), %eax
	movsbl	%al, %eax
	cmpl	$97, %eax
	je	.L91
	cmpl	$111, %eax
	je	.L92
	.loc 2 198 13
	jmp	.L107
.L91:
	.loc 2 194 38
	movl	$99, %ecx
	leaq	.LC7(%rip), %rdx
	movl	$3, %esi
	movl	$2, %edi
	call	checkKeyword
	jmp	.L84
.L92:
	.loc 2 195 38
	movl	$101, %ecx
	leaq	.LC8(%rip), %rdx
	movl	$1, %esi
	movl	$2, %edi
	call	checkKeyword
	jmp	.L84
.L76:
	.loc 2 200 23
	movq	8+scanner(%rip), %rdx
	.loc 2 200 41
	movq	scanner(%rip), %rax
	.loc 2 200 32
	subq	%rax, %rdx
	movq	%rdx, %rax
	.loc 2 200 15
	cmpq	$1, %rax
	jle	.L108
	.loc 2 201 31
	movq	scanner(%rip), %rax
	.loc 2 201 37
	addq	$1, %rax
	movzbl	(%rax), %eax
	movsbl	%al, %eax
	cmpl	$102, %eax
	je	.L94
	cmpl	$110, %eax
	je	.L95
	.loc 2 206 13
	jmp	.L108
.L94:
	.loc 2 202 38
	movl	$102, %ecx
	leaq	.LC5(%rip), %rdx
	movl	$0, %esi
	movl	$2, %edi
	call	checkKeyword
	jmp	.L84
.L95:
	.loc 2 203 38
	movl	$103, %ecx
	leaq	.LC9(%rip), %rdx
	movl	$1, %esi
	movl	$2, %edi
	call	checkKeyword
	jmp	.L84
.L75:
	.loc 2 208 23
	movq	8+scanner(%rip), %rdx
	.loc 2 208 41
	movq	scanner(%rip), %rax
	.loc 2 208 32
	subq	%rax, %rdx
	movq	%rdx, %rax
	.loc 2 208 15
	cmpq	$1, %rax
	jle	.L109
	.loc 2 209 31
	movq	scanner(%rip), %rax
	.loc 2 209 37
	addq	$1, %rax
	movzbl	(%rax), %eax
	movsbl	%al, %eax
	cmpl	$101, %eax
	jne	.L109
	.loc 2 210 38
	movl	$104, %ecx
	leaq	.LC10(%rip), %rdx
	movl	$1, %esi
	movl	$2, %edi
	call	checkKeyword
	jmp	.L84
.L74:
	.loc 2 214 26
	movl	$105, %ecx
	leaq	.LC11(%rip), %rdx
	movl	$2, %esi
	movl	$1, %edi
	call	checkKeyword
	jmp	.L84
.L73:
	.loc 2 215 26
	movl	$106, %ecx
	leaq	.LC12(%rip), %rdx
	movl	$3, %esi
	movl	$1, %edi
	call	checkKeyword
	jmp	.L84
.L72:
	.loc 2 216 26
	movl	$109, %ecx
	leaq	.LC13(%rip), %rdx
	movl	$5, %esi
	movl	$1, %edi
	call	checkKeyword
	jmp	.L84
.L71:
	.loc 2 218 24
	movq	8+scanner(%rip), %rdx
	.loc 2 218 42
	movq	scanner(%rip), %rax
	.loc 2 218 33
	subq	%rax, %rdx
	movq	%rdx, %rax
	.loc 2 218 16
	cmpq	$1, %rax
	jle	.L110
	.loc 2 219 31
	movq	scanner(%rip), %rax
	.loc 2 219 37
	addq	$1, %rax
	movzbl	(%rax), %eax
	movsbl	%al, %eax
	cmpl	$116, %eax
	je	.L98
	cmpl	$117, %eax
	jne	.L110
	.loc 2 220 38
	movl	$108, %ecx
	leaq	.LC14(%rip), %rdx
	movl	$3, %esi
	movl	$2, %edi
	call	checkKeyword
	jmp	.L84
.L98:
	.loc 2 221 38
	movl	$107, %ecx
	leaq	.LC15(%rip), %rdx
	movl	$4, %esi
	movl	$2, %edi
	call	checkKeyword
	jmp	.L84
.L70:
	.loc 2 226 23
	movq	8+scanner(%rip), %rdx
	.loc 2 226 41
	movq	scanner(%rip), %rax
	.loc 2 226 32
	subq	%rax, %rdx
	movq	%rdx, %rax
	.loc 2 226 15
	cmpq	$1, %rax
	jle	.L111
	.loc 2 227 31
	movq	scanner(%rip), %rax
	.loc 2 227 37
	addq	$1, %rax
	movzbl	(%rax), %eax
	movsbl	%al, %eax
	cmpl	$104, %eax
	je	.L100
	cmpl	$114, %eax
	je	.L101
	.loc 2 232 13
	jmp	.L111
.L100:
	.loc 2 228 38
	movl	$110, %ecx
	leaq	.LC16(%rip), %rdx
	movl	$2, %esi
	movl	$2, %edi
	call	checkKeyword
	jmp	.L84
.L101:
	.loc 2 229 38
	movl	$111, %ecx
	leaq	.LC17(%rip), %rdx
	movl	$2, %esi
	movl	$2, %edi
	call	checkKeyword
	jmp	.L84
.L68:
	.loc 2 234 23
	movq	8+scanner(%rip), %rdx
	.loc 2 234 41
	movq	scanner(%rip), %rax
	.loc 2 234 32
	subq	%rax, %rdx
	movq	%rdx, %rax
	.loc 2 234 15
	cmpq	$1, %rax
	jle	.L112
	.loc 2 235 31
	movq	scanner(%rip), %rax
	.loc 2 235 37
	addq	$2, %rax
	movzbl	(%rax), %eax
	movsbl	%al, %eax
	cmpl	$101, %eax
	je	.L103
	cmpl	$105, %eax
	je	.L104
	.loc 2 240 13
	jmp	.L112
.L103:
	.loc 2 236 38
	movl	$112, %ecx
	leaq	.LC9(%rip), %rdx
	movl	$1, %esi
	movl	$3, %edi
	call	checkKeyword
	jmp	.L84
.L104:
	.loc 2 237 38
	movl	$113, %ecx
	leaq	.LC18(%rip), %rdx
	movl	$2, %esi
	movl	$3, %edi
	call	checkKeyword
	jmp	.L84
.L105:
	.loc 2 171 13
	nop
	jmp	.L67
.L106:
	.loc 2 190 13
	nop
	jmp	.L67
.L107:
	.loc 2 198 13
	nop
	jmp	.L67
.L108:
	.loc 2 206 13
	nop
	jmp	.L67
.L109:
	.loc 2 213 13
	nop
	jmp	.L67
.L110:
	.loc 2 224 13
	nop
	jmp	.L67
.L111:
	.loc 2 232 13
	nop
	jmp	.L67
.L112:
	.loc 2 240 13
	nop
.L67:
	.loc 2 242 12
	movl	$117, %eax
.L84:
	.loc 2 243 1
	popq	%rbp
	.cfi_def_cfa 7, 8
	ret
	.cfi_endproc
.LFE16:
	.size	identifierType, .-identifierType
	.type	identifier, @function
identifier:
.LFB17:
	.loc 2 245 26
	.cfi_startproc
	endbr64
	pushq	%rbp
	.cfi_def_cfa_offset 16
	.cfi_offset 6, -16
	movq	%rsp, %rbp
	.cfi_def_cfa_register 6
	subq	$32, %rsp
	movq	%rdi, -24(%rbp)
	.loc 2 245 26
	movq	%fs:40, %rax
	movq	%rax, -8(%rbp)
	xorl	%eax, %eax
	.loc 2 246 10
	jmp	.L114
.L115:
	.loc 2 246 57 discriminator 4
	movl	$0, %eax
	call	nextChar
.L114:
	.loc 2 246 19 discriminator 1
	movl	$0, %eax
	call	checkChar
	.loc 2 246 11 discriminator 1
	movsbl	%al, %eax
	movl	%eax, %edi
	call	isAlpha
	.loc 2 246 10 discriminator 1
	testb	%al, %al
	jne	.L115
	.loc 2 246 43 discriminator 3
	movl	$0, %eax
	call	checkChar
	.loc 2 246 35 discriminator 3
	movsbl	%al, %eax
	movl	%eax, %edi
	call	isDigit
	.loc 2 246 32 discriminator 3
	testb	%al, %al
	jne	.L115
	.loc 2 247 12
	movl	$0, %eax
	call	identifierType
	movl	%eax, %edx
	movq	-24(%rbp), %rax
	movl	%edx, %esi
	movq	%rax, %rdi
	call	makeToken
	.loc 2 248 1
	movq	-8(%rbp), %rax
	xorq	%fs:40, %rax
	je	.L117
	call	__stack_chk_fail@PLT
.L117:
	movq	-24(%rbp), %rax
	leave
	.cfi_def_cfa 7, 8
	ret
	.cfi_endproc
.LFE17:
	.size	identifier, .-identifier
	.type	number, @function
number:
.LFB18:
	.loc 2 250 22
	.cfi_startproc
	endbr64
	pushq	%rbp
	.cfi_def_cfa_offset 16
	.cfi_offset 6, -16
	movq	%rsp, %rbp
	.cfi_def_cfa_register 6
	subq	$32, %rsp
	movq	%rdi, -24(%rbp)
	.loc 2 250 22
	movq	%fs:40, %rax
	movq	%rax, -8(%rbp)
	xorl	%eax, %eax
	.loc 2 251 10
	jmp	.L119
.L120:
	.loc 2 251 33 discriminator 2
	movl	$0, %eax
	call	nextChar
.L119:
	.loc 2 251 19 discriminator 1
	movl	$0, %eax
	call	checkChar
	.loc 2 251 11 discriminator 1
	movsbl	%al, %eax
	movl	%eax, %edi
	call	isDigit
	.loc 2 251 10 discriminator 1
	testb	%al, %al
	jne	.L120
	.loc 2 254 8
	movl	$0, %eax
	call	checkChar
	.loc 2 254 7
	cmpb	$46, %al
	jne	.L121
	.loc 2 254 38 discriminator 1
	movl	$0, %eax
	call	checkNextChar
	.loc 2 254 30 discriminator 1
	movsbl	%al, %eax
	movl	%eax, %edi
	call	isDigit
	.loc 2 254 27 discriminator 1
	testb	%al, %al
	je	.L121
	.loc 2 255 9
	movl	$0, %eax
	call	nextChar
	.loc 2 256 14
	jmp	.L122
.L123:
	.loc 2 256 37 discriminator 2
	movl	$0, %eax
	call	nextChar
.L122:
	.loc 2 256 23 discriminator 1
	movl	$0, %eax
	call	checkChar
	.loc 2 256 15 discriminator 1
	movsbl	%al, %eax
	movl	%eax, %edi
	call	isDigit
	.loc 2 256 14 discriminator 1
	testb	%al, %al
	jne	.L123
.L121:
	.loc 2 259 12
	movq	-24(%rbp), %rax
	movl	$116, %esi
	movq	%rax, %rdi
	call	makeToken
	.loc 2 260 1
	movq	-8(%rbp), %rax
	xorq	%fs:40, %rax
	je	.L125
	call	__stack_chk_fail@PLT
.L125:
	movq	-24(%rbp), %rax
	leave
	.cfi_def_cfa 7, 8
	ret
	.cfi_endproc
.LFE18:
	.size	number, .-number
	.section	.rodata
.LC19:
	.string	"Unterminated string."
	.text
	.type	string, @function
string:
.LFB19:
	.loc 2 262 22
	.cfi_startproc
	endbr64
	pushq	%rbp
	.cfi_def_cfa_offset 16
	.cfi_offset 6, -16
	movq	%rsp, %rbp
	.cfi_def_cfa_register 6
	subq	$32, %rsp
	movq	%rdi, -24(%rbp)
	.loc 2 262 22
	movq	%fs:40, %rax
	movq	%rax, -8(%rbp)
	xorl	%eax, %eax
	.loc 2 263 10
	jmp	.L127
.L130:
	.loc 2 264 12
	movl	$0, %eax
	call	checkChar
	.loc 2 264 11
	cmpb	$10, %al
	jne	.L128
	.loc 2 264 40 discriminator 1
	movzwl	16+scanner(%rip), %eax
	.loc 2 264 45 discriminator 1
	addl	$1, %eax
	movw	%ax, 16+scanner(%rip)
.L128:
	.loc 2 265 9
	movl	$0, %eax
	call	nextChar
.L127:
	.loc 2 263 12
	movl	$0, %eax
	call	checkChar
	.loc 2 263 10
	cmpb	$34, %al
	je	.L129
	.loc 2 263 34 discriminator 1
	movl	$0, %eax
	call	checkChar
	.loc 2 263 31 discriminator 1
	cmpb	$39, %al
	je	.L129
	.loc 2 263 57 discriminator 2
	movl	$0, %eax
	call	checkChar
	.loc 2 263 54 discriminator 2
	cmpb	$96, %al
	je	.L129
	.loc 2 263 81 discriminator 3
	movl	$0, %eax
	call	isAtEnd
	.loc 2 263 80 discriminator 3
	xorl	$1, %eax
	.loc 2 263 77 discriminator 3
	testb	%al, %al
	jne	.L130
.L129:
	.loc 2 268 8
	movl	$0, %eax
	call	isAtEnd
	.loc 2 268 7
	testb	%al, %al
	je	.L131
	.loc 2 268 26 discriminator 1
	movq	-24(%rbp), %rax
	leaq	.LC19(%rip), %rsi
	movq	%rax, %rdi
	call	errorToken
	jmp	.L126
.L131:
	.loc 2 270 5
	movl	$0, %eax
	call	nextChar
	.loc 2 271 12
	movq	-24(%rbp), %rax
	movl	$121, %esi
	movq	%rax, %rdi
	call	makeToken
.L126:
	.loc 2 272 1
	movq	-8(%rbp), %rax
	xorq	%fs:40, %rax
	je	.L133
	call	__stack_chk_fail@PLT
.L133:
	movq	-24(%rbp), %rax
	leave
	.cfi_def_cfa 7, 8
	ret
	.cfi_endproc
.LFE19:
	.size	string, .-string
	.section	.rodata
.LC20:
	.string	"Unexpected character."
	.text
	.globl	scanToken
	.type	scanToken, @function
scanToken:
.LFB20:
	.loc 2 274 18
	.cfi_startproc
	endbr64
	pushq	%rbp
	.cfi_def_cfa_offset 16
	.cfi_offset 6, -16
	movq	%rsp, %rbp
	.cfi_def_cfa_register 6
	subq	$32, %rsp
	movq	%rdi, -24(%rbp)
	.loc 2 274 18
	movq	%fs:40, %rax
	movq	%rax, -8(%rbp)
	xorl	%eax, %eax
	.loc 2 275 5
	movl	$0, %eax
	call	skipWhitespace
	.loc 2 276 28
	movq	8+scanner(%rip), %rax
	.loc 2 276 19
	movq	%rax, scanner(%rip)
	.loc 2 278 8
	movl	$0, %eax
	call	isAtEnd
	.loc 2 278 7
	testb	%al, %al
	je	.L135
	.loc 2 278 26 discriminator 1
	movq	-24(%rbp), %rax
	movl	$123, %esi
	movq	%rax, %rdi
	call	makeToken
	jmp	.L134
.L135:
	.loc 2 280 17
	movl	$0, %eax
	call	nextChar
	.loc 2 280 13
	movb	%al, -9(%rbp)
	.loc 2 281 8
	movzbl	-9(%rbp), %eax
	movsbl	%al, %eax
	movl	%eax, %edi
	call	isAlpha
	.loc 2 281 7
	testb	%al, %al
	je	.L137
	.loc 2 281 27 discriminator 1
	movq	-24(%rbp), %rax
	movq	%rax, %rdi
	movl	$0, %eax
	call	identifier
	jmp	.L134
.L137:
	.loc 2 282 8
	movzbl	-9(%rbp), %eax
	movsbl	%al, %eax
	movl	%eax, %edi
	call	isDigit
	.loc 2 282 7
	testb	%al, %al
	je	.L138
	.loc 2 282 27 discriminator 1
	movq	-24(%rbp), %rax
	movq	%rax, %rdi
	movl	$0, %eax
	call	number
	jmp	.L134
.L138:
	.loc 2 284 5
	movzbl	-9(%rbp), %eax
	subl	$33, %eax
	cmpl	$93, %eax
	ja	.L139
	movl	%eax, %eax
	leaq	0(,%rax,4), %rdx
	leaq	.L141(%rip), %rax
	movl	(%rdx,%rax), %eax
	cltq
	leaq	.L141(%rip), %rdx
	addq	%rdx, %rax
	notrack jmp	*%rax
	.section	.rodata
	.align 4
	.align 4
.L141:
	.long	.L165-.L141
	.long	.L144-.L141
	.long	.L139-.L141
	.long	.L164-.L141
	.long	.L163-.L141
	.long	.L162-.L141
	.long	.L144-.L141
	.long	.L161-.L141
	.long	.L160-.L141
	.long	.L159-.L141
	.long	.L158-.L141
	.long	.L157-.L141
	.long	.L156-.L141
	.long	.L155-.L141
	.long	.L154-.L141
	.long	.L139-.L141
	.long	.L139-.L141
	.long	.L139-.L141
	.long	.L139-.L141
	.long	.L139-.L141
	.long	.L139-.L141
	.long	.L139-.L141
	.long	.L139-.L141
	.long	.L139-.L141
	.long	.L139-.L141
	.long	.L153-.L141
	.long	.L152-.L141
	.long	.L151-.L141
	.long	.L150-.L141
	.long	.L149-.L141
	.long	.L148-.L141
	.long	.L139-.L141
	.long	.L139-.L141
	.long	.L139-.L141
	.long	.L139-.L141
	.long	.L139-.L141
	.long	.L139-.L141
	.long	.L139-.L141
	.long	.L139-.L141
	.long	.L139-.L141
	.long	.L139-.L141
	.long	.L139-.L141
	.long	.L139-.L141
	.long	.L139-.L141
	.long	.L139-.L141
	.long	.L139-.L141
	.long	.L139-.L141
	.long	.L139-.L141
	.long	.L139-.L141
	.long	.L139-.L141
	.long	.L139-.L141
	.long	.L139-.L141
	.long	.L139-.L141
	.long	.L139-.L141
	.long	.L139-.L141
	.long	.L139-.L141
	.long	.L139-.L141
	.long	.L139-.L141
	.long	.L147-.L141
	.long	.L139-.L141
	.long	.L146-.L141
	.long	.L145-.L141
	.long	.L139-.L141
	.long	.L144-.L141
	.long	.L139-.L141
	.long	.L139-.L141
	.long	.L139-.L141
	.long	.L139-.L141
	.long	.L139-.L141
	.long	.L139-.L141
	.long	.L139-.L141
	.long	.L139-.L141
	.long	.L139-.L141
	.long	.L139-.L141
	.long	.L139-.L141
	.long	.L139-.L141
	.long	.L139-.L141
	.long	.L139-.L141
	.long	.L139-.L141
	.long	.L139-.L141
	.long	.L139-.L141
	.long	.L139-.L141
	.long	.L139-.L141
	.long	.L139-.L141
	.long	.L139-.L141
	.long	.L139-.L141
	.long	.L139-.L141
	.long	.L139-.L141
	.long	.L139-.L141
	.long	.L139-.L141
	.long	.L143-.L141
	.long	.L139-.L141
	.long	.L142-.L141
	.long	.L140-.L141
	.text
.L161:
	.loc 2 286 26
	movq	-24(%rbp), %rax
	movl	$0, %esi
	movq	%rax, %rdi
	call	makeToken
	jmp	.L134
.L160:
	.loc 2 288 16
	movl	$62, %edi
	call	compareChar
	.loc 2 288 15
	testb	%al, %al
	je	.L166
	.loc 2 288 41 discriminator 1
	movq	-24(%rbp), %rax
	movl	$11, %esi
	movq	%rax, %rdi
	call	makeToken
	jmp	.L134
.L166:
	.loc 2 289 20
	movq	-24(%rbp), %rax
	movl	$1, %ecx
	movl	$9, %edx
	movl	$123, %esi
	movq	%rax, %rdi
	call	makeTwoCharToken
	jmp	.L134
.L143:
	.loc 2 290 26
	movq	-24(%rbp), %rax
	movl	$2, %esi
	movq	%rax, %rdi
	call	makeToken
	jmp	.L134
.L142:
	.loc 2 292 16
	movl	$62, %edi
	call	compareChar
	.loc 2 292 15
	testb	%al, %al
	je	.L167
	.loc 2 292 41 discriminator 1
	movq	-24(%rbp), %rax
	movl	$7, %esi
	movq	%rax, %rdi
	call	makeToken
	jmp	.L134
.L167:
	.loc 2 293 20
	movq	-24(%rbp), %rax
	movl	$3, %ecx
	movl	$10, %edx
	movl	$40, %esi
	movq	%rax, %rdi
	call	makeTwoCharToken
	jmp	.L134
.L147:
	.loc 2 294 26
	movq	-24(%rbp), %rax
	movl	$4, %esi
	movq	%rax, %rdi
	call	makeToken
	jmp	.L134
.L146:
	.loc 2 295 26
	movq	-24(%rbp), %rax
	movl	$5, %esi
	movq	%rax, %rdi
	call	makeToken
	jmp	.L134
.L165:
	.loc 2 299 16
	movl	$33, %edi
	call	compareChar
	.loc 2 299 15
	testb	%al, %al
	je	.L168
	.loc 2 299 41 discriminator 1
	movq	-24(%rbp), %rax
	movl	$13, %esi
	movq	%rax, %rdi
	call	makeToken
	jmp	.L134
.L168:
	.loc 2 300 20
	movq	-24(%rbp), %rax
	movl	$12, %ecx
	movl	$93, %edx
	movl	$61, %esi
	movq	%rax, %rdi
	call	makeTwoCharToken
	jmp	.L134
.L148:
	.loc 2 301 26
	movq	-24(%rbp), %rax
	movl	$14, %esi
	movq	%rax, %rdi
	call	makeToken
	jmp	.L134
.L157:
	.loc 2 302 26
	movq	-24(%rbp), %rax
	movl	$15, %esi
	movq	%rax, %rdi
	call	makeToken
	jmp	.L134
.L155:
	.loc 2 304 16
	movl	$46, %edi
	call	compareChar
	.loc 2 304 15
	testb	%al, %al
	je	.L169
	.loc 2 305 24
	movq	-24(%rbp), %rax
	movl	$17, %ecx
	movl	$18, %edx
	movl	$46, %esi
	movq	%rax, %rdi
	call	makeTwoCharToken
	jmp	.L134
.L169:
	.loc 2 306 27
	movq	-24(%rbp), %rax
	movl	$16, %esi
	movq	%rax, %rdi
	call	makeToken
	jmp	.L134
.L152:
	.loc 2 307 26
	movq	-24(%rbp), %rax
	movl	$19, %esi
	movq	%rax, %rdi
	call	makeToken
	jmp	.L134
.L150:
	.loc 2 310 26
	movq	-24(%rbp), %rax
	movl	$75, %ecx
	movl	$92, %edx
	movl	$61, %esi
	movq	%rax, %rdi
	call	makeTwoCharToken
	jmp	.L134
.L151:
	.loc 2 312 16
	movl	$60, %edi
	call	compareChar
	.loc 2 312 15
	testb	%al, %al
	je	.L170
	.loc 2 312 41 discriminator 1
	movq	-24(%rbp), %rax
	movl	$38, %esi
	movq	%rax, %rdi
	call	makeToken
	jmp	.L134
.L170:
	.loc 2 313 16
	movl	$123, %edi
	call	compareChar
	.loc 2 313 15
	testb	%al, %al
	je	.L171
	.loc 2 313 41 discriminator 1
	movq	-24(%rbp), %rax
	movl	$6, %esi
	movq	%rax, %rdi
	call	makeToken
	jmp	.L134
.L171:
	.loc 2 314 16
	movl	$40, %edi
	call	compareChar
	.loc 2 314 15
	testb	%al, %al
	je	.L172
	.loc 2 314 41 discriminator 1
	movq	-24(%rbp), %rax
	movl	$8, %esi
	movq	%rax, %rdi
	call	makeToken
	jmp	.L134
.L172:
	.loc 2 315 20
	movq	-24(%rbp), %rax
	movl	$88, %ecx
	movl	$90, %edx
	movl	$61, %esi
	movq	%rax, %rdi
	call	makeTwoCharToken
	jmp	.L134
.L149:
	.loc 2 317 16
	movl	$62, %edi
	call	compareChar
	.loc 2 317 15
	testb	%al, %al
	je	.L173
	.loc 2 317 41 discriminator 1
	movq	-24(%rbp), %rax
	movl	$37, %ecx
	movl	$36, %edx
	movl	$62, %esi
	movq	%rax, %rdi
	call	makeTwoCharToken
	jmp	.L134
.L173:
	.loc 2 318 20
	movq	-24(%rbp), %rax
	movl	$89, %ecx
	movl	$91, %edx
	movl	$61, %esi
	movq	%rax, %rdi
	call	makeTwoCharToken
	jmp	.L134
.L158:
	.loc 2 321 26
	movq	-24(%rbp), %rax
	movl	$23, %ecx
	movl	$66, %edx
	movl	$61, %esi
	movq	%rax, %rdi
	call	makeTwoCharToken
	jmp	.L134
.L156:
	.loc 2 322 26
	movq	-24(%rbp), %rax
	movl	$24, %ecx
	movl	$67, %edx
	movl	$61, %esi
	movq	%rax, %rdi
	call	makeTwoCharToken
	jmp	.L134
.L159:
	.loc 2 324 16
	movl	$42, %edi
	call	compareChar
	.loc 2 324 15
	testb	%al, %al
	je	.L174
	.loc 2 324 41 discriminator 1
	movq	-24(%rbp), %rax
	movl	$28, %esi
	movq	%rax, %rdi
	call	makeToken
	jmp	.L134
.L174:
	.loc 2 325 20
	movq	-24(%rbp), %rax
	movl	$25, %ecx
	movl	$68, %edx
	movl	$61, %esi
	movq	%rax, %rdi
	call	makeTwoCharToken
	jmp	.L134
.L154:
	.loc 2 326 26
	movq	-24(%rbp), %rax
	movl	$26, %ecx
	movl	$69, %edx
	movl	$61, %esi
	movq	%rax, %rdi
	call	makeTwoCharToken
	jmp	.L134
.L163:
	.loc 2 327 26
	movq	-24(%rbp), %rax
	movl	$27, %ecx
	movl	$70, %edx
	movl	$37, %esi
	movq	%rax, %rdi
	call	makeTwoCharToken
	jmp	.L134
.L162:
	.loc 2 331 16
	movl	$38, %edi
	call	compareChar
	.loc 2 331 15
	testb	%al, %al
	je	.L175
	.loc 2 331 41 discriminator 1
	movq	-24(%rbp), %rax
	movl	$29, %esi
	movq	%rax, %rdi
	call	makeToken
	jmp	.L134
.L175:
	.loc 2 332 20
	movq	-24(%rbp), %rax
	movl	$32, %ecx
	movl	$71, %edx
	movl	$61, %esi
	movq	%rax, %rdi
	call	makeTwoCharToken
	jmp	.L134
.L145:
	.loc 2 334 16
	movl	$94, %edi
	call	compareChar
	.loc 2 334 15
	testb	%al, %al
	je	.L176
	.loc 2 334 41 discriminator 1
	movq	-24(%rbp), %rax
	movl	$31, %esi
	movq	%rax, %rdi
	call	makeToken
	jmp	.L134
.L176:
	.loc 2 335 20
	movq	-24(%rbp), %rax
	movl	$34, %ecx
	movl	$73, %edx
	movl	$61, %esi
	movq	%rax, %rdi
	call	makeTwoCharToken
	jmp	.L134
.L140:
	.loc 2 337 16
	movl	$62, %edi
	call	compareChar
	.loc 2 337 15
	testb	%al, %al
	je	.L177
	.loc 2 337 41 discriminator 1
	movq	-24(%rbp), %rax
	movl	$22, %esi
	movq	%rax, %rdi
	call	makeToken
	jmp	.L134
.L177:
	.loc 2 338 20
	movq	-24(%rbp), %rax
	movl	$35, %ecx
	movl	$74, %edx
	movl	$61, %esi
	movq	%rax, %rdi
	call	makeTwoCharToken
	jmp	.L134
.L144:
	.loc 2 350 20
	movq	-24(%rbp), %rax
	movq	%rax, %rdi
	movl	$0, %eax
	call	string
	jmp	.L134
.L153:
	.loc 2 354 16
	movl	$99, %edi
	call	compareChar
	.loc 2 354 15
	testb	%al, %al
	je	.L178
	.loc 2 354 34 discriminator 1
	movl	$0, %eax
	call	nextChar
	.loc 2 354 53 discriminator 1
	movq	-24(%rbp), %rax
	movl	$42, %esi
	movq	%rax, %rdi
	call	makeToken
	jmp	.L134
.L178:
	.loc 2 355 16
	movl	$100, %edi
	call	compareChar
	.loc 2 355 15
	testb	%al, %al
	je	.L179
	.loc 2 355 34 discriminator 1
	movl	$0, %eax
	call	nextChar
	.loc 2 355 53 discriminator 1
	movq	-24(%rbp), %rax
	movl	$60, %esi
	movq	%rax, %rdi
	call	makeToken
	jmp	.L134
.L179:
	.loc 2 356 16
	movl	$102, %edi
	call	compareChar
	.loc 2 356 15
	testb	%al, %al
	je	.L180
	.loc 2 356 34 discriminator 1
	movl	$0, %eax
	call	nextChar
	.loc 2 356 53 discriminator 1
	movq	-24(%rbp), %rax
	movl	$58, %esi
	movq	%rax, %rdi
	call	makeToken
	jmp	.L134
.L180:
	.loc 2 357 16
	movl	$105, %edi
	call	compareChar
	.loc 2 357 15
	testb	%al, %al
	je	.L181
	.loc 2 357 34 discriminator 1
	movl	$0, %eax
	call	nextChar
	.loc 2 357 53 discriminator 1
	movq	-24(%rbp), %rax
	movl	$46, %esi
	movq	%rax, %rdi
	call	makeToken
	jmp	.L134
.L181:
	.loc 2 358 16
	movl	$108, %edi
	call	compareChar
	.loc 2 358 15
	testb	%al, %al
	je	.L182
	.loc 2 359 20
	movl	$100, %edi
	call	compareChar
	.loc 2 359 19
	testb	%al, %al
	je	.L183
	.loc 2 359 38 discriminator 1
	movl	$0, %eax
	call	nextChar
	.loc 2 359 57 discriminator 1
	movq	-24(%rbp), %rax
	movl	$62, %esi
	movq	%rax, %rdi
	call	makeToken
	jmp	.L134
.L183:
	.loc 2 360 20
	movl	$108, %edi
	call	compareChar
	.loc 2 360 19
	testb	%al, %al
	je	.L184
	.loc 2 360 38 discriminator 1
	movl	$0, %eax
	call	nextChar
	.loc 2 360 57 discriminator 1
	movq	-24(%rbp), %rax
	movl	$54, %esi
	movq	%rax, %rdi
	call	makeToken
	jmp	.L134
.L184:
	.loc 2 361 20
	movl	$61, %edi
	call	compareChar
	.loc 2 361 19
	testb	%al, %al
	je	.L182
	.loc 2 361 45 discriminator 1
	movq	-24(%rbp), %rax
	movl	$50, %esi
	movq	%rax, %rdi
	call	makeToken
	jmp	.L134
.L182:
	.loc 2 363 16
	movl	$115, %edi
	call	compareChar
	.loc 2 363 15
	testb	%al, %al
	je	.L185
	.loc 2 363 34 discriminator 1
	movl	$0, %eax
	call	nextChar
	.loc 2 363 53 discriminator 1
	movq	-24(%rbp), %rax
	movl	$64, %esi
	movq	%rax, %rdi
	call	makeToken
	jmp	.L134
.L185:
	.loc 2 364 16
	movl	$117, %edi
	call	compareChar
	.loc 2 364 15
	testb	%al, %al
	je	.L186
	.loc 2 365 20
	movl	$99, %edi
	call	compareChar
	.loc 2 365 19
	testb	%al, %al
	je	.L187
	.loc 2 365 38 discriminator 1
	movl	$0, %eax
	call	nextChar
	.loc 2 365 57 discriminator 1
	movq	-24(%rbp), %rax
	movl	$44, %esi
	movq	%rax, %rdi
	call	makeToken
	jmp	.L134
.L187:
	.loc 2 366 20
	movl	$105, %edi
	call	compareChar
	.loc 2 366 19
	testb	%al, %al
	je	.L188
	.loc 2 366 38 discriminator 1
	movl	$0, %eax
	call	nextChar
	.loc 2 366 57 discriminator 1
	movq	-24(%rbp), %rax
	movl	$48, %esi
	movq	%rax, %rdi
	call	makeToken
	jmp	.L134
.L188:
	.loc 2 367 20
	movl	$108, %edi
	call	compareChar
	.loc 2 367 19
	testb	%al, %al
	je	.L186
	.loc 2 368 24
	movl	$108, %edi
	call	compareChar
	.loc 2 368 23
	testb	%al, %al
	je	.L189
	.loc 2 368 42 discriminator 1
	movl	$0, %eax
	call	nextChar
	.loc 2 368 61 discriminator 1
	movq	-24(%rbp), %rax
	movl	$56, %esi
	movq	%rax, %rdi
	call	makeToken
	jmp	.L134
.L189:
	.loc 2 369 24
	movl	$61, %edi
	call	compareChar
	.loc 2 369 23
	testb	%al, %al
	je	.L186
	.loc 2 369 49 discriminator 1
	movq	-24(%rbp), %rax
	movl	$52, %esi
	movq	%rax, %rdi
	call	makeToken
	jmp	.L134
.L186:
	.loc 2 372 16
	movl	$58, %edi
	call	compareChar
	.loc 2 372 15
	testb	%al, %al
	je	.L190
	.loc 2 372 41 discriminator 1
	movq	-24(%rbp), %rax
	movl	$39, %esi
	movq	%rax, %rdi
	call	makeToken
	jmp	.L134
.L190:
	.loc 2 373 16
	movl	$0, %edi
	call	compareChar
	.loc 2 373 15
	testb	%al, %al
	je	.L164
	.loc 2 373 42 discriminator 1
	movq	-24(%rbp), %rax
	movl	$20, %esi
	movq	%rax, %rdi
	call	makeToken
	jmp	.L134
.L164:
	.loc 2 376 23
	movq	8+scanner(%rip), %rdx
	.loc 2 376 41
	movq	scanner(%rip), %rax
	.loc 2 376 32
	subq	%rax, %rdx
	movq	%rdx, %rax
	.loc 2 376 15
	cmpq	$1, %rax
	jle	.L208
	.loc 2 377 31
	movq	scanner(%rip), %rax
	.loc 2 377 37
	addq	$1, %rax
	movzbl	(%rax), %eax
	movsbl	%al, %eax
	subl	$61, %eax
	cmpl	$56, %eax
	ja	.L208
	movl	%eax, %eax
	leaq	0(,%rax,4), %rdx
	leaq	.L193(%rip), %rax
	movl	(%rdx,%rax), %eax
	cltq
	leaq	.L193(%rip), %rdx
	addq	%rdx, %rax
	notrack jmp	*%rax
	.section	.rodata
	.align 4
	.align 4
.L193:
	.long	.L200-.L193
	.long	.L208-.L193
	.long	.L208-.L193
	.long	.L208-.L193
	.long	.L208-.L193
	.long	.L208-.L193
	.long	.L208-.L193
	.long	.L208-.L193
	.long	.L208-.L193
	.long	.L208-.L193
	.long	.L208-.L193
	.long	.L208-.L193
	.long	.L208-.L193
	.long	.L208-.L193
	.long	.L208-.L193
	.long	.L208-.L193
	.long	.L208-.L193
	.long	.L208-.L193
	.long	.L208-.L193
	.long	.L208-.L193
	.long	.L208-.L193
	.long	.L208-.L193
	.long	.L208-.L193
	.long	.L208-.L193
	.long	.L208-.L193
	.long	.L208-.L193
	.long	.L208-.L193
	.long	.L208-.L193
	.long	.L208-.L193
	.long	.L208-.L193
	.long	.L208-.L193
	.long	.L208-.L193
	.long	.L208-.L193
	.long	.L208-.L193
	.long	.L208-.L193
	.long	.L208-.L193
	.long	.L208-.L193
	.long	.L208-.L193
	.long	.L199-.L193
	.long	.L198-.L193
	.long	.L208-.L193
	.long	.L197-.L193
	.long	.L208-.L193
	.long	.L208-.L193
	.long	.L196-.L193
	.long	.L208-.L193
	.long	.L208-.L193
	.long	.L195-.L193
	.long	.L208-.L193
	.long	.L208-.L193
	.long	.L208-.L193
	.long	.L208-.L193
	.long	.L208-.L193
	.long	.L208-.L193
	.long	.L194-.L193
	.long	.L208-.L193
	.long	.L192-.L193
	.text
.L199:
	.loc 2 378 38
	movq	-24(%rbp), %rax
	movl	$43, %esi
	movq	%rax, %rdi
	call	makeToken
	jmp	.L134
.L198:
	.loc 2 379 38
	movq	-24(%rbp), %rax
	movl	$61, %esi
	movq	%rax, %rdi
	call	makeToken
	jmp	.L134
.L197:
	.loc 2 380 38
	movq	-24(%rbp), %rax
	movl	$59, %esi
	movq	%rax, %rdi
	call	makeToken
	jmp	.L134
.L196:
	.loc 2 381 38
	movq	-24(%rbp), %rax
	movl	$47, %esi
	movq	%rax, %rdi
	call	makeToken
	jmp	.L134
.L195:
	.loc 2 382 45 discriminator 2
	movq	scanner(%rip), %rax
	.loc 2 382 51 discriminator 2
	addq	$2, %rax
	movzbl	(%rax), %eax
	movsbl	%al, %eax
	cmpl	$108, %eax
	je	.L201
	cmpl	$108, %eax
	jg	.L194
	cmpl	$61, %eax
	je	.L202
	cmpl	$100, %eax
	jne	.L194
	.loc 2 383 42
	movq	-24(%rbp), %rax
	movl	$63, %esi
	movq	%rax, %rdi
	call	makeToken
	jmp	.L134
.L201:
	.loc 2 384 42
	movq	-24(%rbp), %rax
	movl	$55, %esi
	movq	%rax, %rdi
	call	makeToken
	jmp	.L134
.L202:
	.loc 2 385 42
	movq	-24(%rbp), %rax
	movl	$51, %esi
	movq	%rax, %rdi
	call	makeToken
	jmp	.L134
.L194:
	.loc 2 387 38
	movq	-24(%rbp), %rax
	movl	$65, %esi
	movq	%rax, %rdi
	call	makeToken
	jmp	.L134
.L192:
	.loc 2 388 45 discriminator 3
	movq	scanner(%rip), %rax
	.loc 2 388 51 discriminator 3
	addq	$2, %rax
	movzbl	(%rax), %eax
	movsbl	%al, %eax
	cmpl	$108, %eax
	je	.L203
	cmpl	$108, %eax
	jg	.L200
	cmpl	$99, %eax
	je	.L204
	cmpl	$105, %eax
	je	.L205
	jmp	.L200
.L204:
	.loc 2 389 42
	movq	-24(%rbp), %rax
	movl	$45, %esi
	movq	%rax, %rdi
	call	makeToken
	jmp	.L134
.L205:
	.loc 2 390 42
	movq	-24(%rbp), %rax
	movl	$49, %esi
	movq	%rax, %rdi
	call	makeToken
	jmp	.L134
.L203:
	.loc 2 391 49 discriminator 4
	movq	scanner(%rip), %rax
	.loc 2 391 55 discriminator 4
	addq	$3, %rax
	movzbl	(%rax), %eax
	movsbl	%al, %eax
	cmpl	$61, %eax
	je	.L206
	cmpl	$108, %eax
	jne	.L200
	.loc 2 392 53 discriminator 5
	movq	scanner(%rip), %rax
	.loc 2 392 59 discriminator 5
	addq	$4, %rax
	movzbl	(%rax), %eax
	movsbl	%al, %eax
	cmpl	$61, %eax
	jne	.L206
	.loc 2 392 81
	movq	-24(%rbp), %rax
	movl	$57, %esi
	movq	%rax, %rdi
	call	makeToken
	jmp	.L134
.L206:
	.loc 2 393 46
	movq	-24(%rbp), %rax
	movl	$53, %esi
	movq	%rax, %rdi
	call	makeToken
	jmp	.L134
.L200:
	.loc 2 396 38
	movq	-24(%rbp), %rax
	movl	$41, %esi
	movq	%rax, %rdi
	call	makeToken
	jmp	.L134
.L208:
	.loc 2 401 13
	nop
.L139:
	.loc 2 411 5
	movzbl	-9(%rbp), %eax
	movl	%eax, %edi
	call	invalidToken
	.loc 2 412 12
	movq	-24(%rbp), %rax
	leaq	.LC20(%rip), %rsi
	movq	%rax, %rdi
	call	errorToken
.L134:
	.loc 2 413 1
	movq	-8(%rbp), %rax
	xorq	%fs:40, %rax
	je	.L207
	call	__stack_chk_fail@PLT
.L207:
	movq	-24(%rbp), %rax
	leave
	.cfi_def_cfa 7, 8
	ret
	.cfi_endproc
.LFE20:
	.size	scanToken, .-scanToken
.Letext0:
	.file 3 "/usr/lib/gcc/x86_64-linux-gnu/9/include/stddef.h"
	.file 4 "/usr/include/x86_64-linux-gnu/bits/types.h"
	.file 5 "/usr/include/x86_64-linux-gnu/bits/stdint-intn.h"
	.file 6 "/usr/include/x86_64-linux-gnu/bits/stdint-uintn.h"
	.file 7 "/usr/include/x86_64-linux-gnu/bits/types/struct_FILE.h"
	.file 8 "/usr/include/x86_64-linux-gnu/bits/types/FILE.h"
	.file 9 "/usr/include/stdio.h"
	.section	.note.GNU-stack,"",@progbits
	.section	.note.gnu.property,"a"
	.align 8
	.long	 1f - 0f
	.long	 4f - 1f
	.long	 5
0:
	.string	 "GNU"
1:
	.align 8
	.long	 0xc0000002
	.long	 3f - 2f
2:
	.long	 0x3
3:
	.align 8
4:
