	.file	"value.c"
	.text
.Ltext0:
	.globl	valuesEqual
	.type	valuesEqual, @function
valuesEqual:
.LFB1:
	.file 1 "Bytecode/value/value.c"
	.loc 1 9 34
	.cfi_startproc
	endbr64
	pushq	%rbp
	.cfi_def_cfa_offset 16
	.cfi_offset 6, -16
	movq	%rsp, %rbp
	.cfi_def_cfa_register 6
	.loc 1 10 9
	movl	16(%rbp), %edx
	.loc 1 10 19
	movl	48(%rbp), %eax
	.loc 1 10 7
	cmpl	%eax, %edx
	je	.L2
	.loc 1 10 32 discriminator 1
	movl	$0, %eax
	jmp	.L3
.L2:
	.loc 1 11 13
	movl	16(%rbp), %eax
	cmpl	$14, %eax
	ja	.L4
	movl	%eax, %eax
	leaq	0(,%rax,4), %rdx
	leaq	.L6(%rip), %rax
	movl	(%rdx,%rax), %eax
	cltq
	leaq	.L6(%rip), %rdx
	addq	%rdx, %rax
	notrack jmp	*%rax
	.section	.rodata
	.align 4
	.align 4
.L6:
	.long	.L4-.L6
	.long	.L19-.L6
	.long	.L18-.L6
	.long	.L17-.L6
	.long	.L16-.L6
	.long	.L15-.L6
	.long	.L14-.L6
	.long	.L13-.L6
	.long	.L12-.L6
	.long	.L11-.L6
	.long	.L10-.L6
	.long	.L9-.L6
	.long	.L8-.L6
	.long	.L7-.L6
	.long	.L5-.L6
	.text
.L19:
	.loc 1 12 31
	movl	$1, %eax
	jmp	.L3
.L18:
	.loc 1 13 38
	movzbl	32(%rbp), %edx
	.loc 1 13 58
	movzbl	64(%rbp), %eax
	.loc 1 13 48
	cmpb	%al, %dl
	sete	%al
	jmp	.L3
.L5:
	.loc 1 14 37
	movq	32(%rbp), %rdx
	.loc 1 14 53
	movq	64(%rbp), %rax
	.loc 1 14 43
	cmpq	%rax, %rdx
	sete	%al
	jmp	.L3
.L17:
	.loc 1 15 36
	movzbl	32(%rbp), %edx
	.loc 1 15 51
	movzbl	64(%rbp), %eax
	.loc 1 15 41
	cmpb	%al, %dl
	sete	%al
	jmp	.L3
.L16:
	.loc 1 16 36
	movzbl	32(%rbp), %edx
	.loc 1 16 51
	movzbl	64(%rbp), %eax
	.loc 1 16 41
	cmpb	%al, %dl
	sete	%al
	jmp	.L3
.L15:
	.loc 1 17 37
	movzwl	32(%rbp), %edx
	.loc 1 17 53
	movzwl	64(%rbp), %eax
	.loc 1 17 43
	cmpw	%ax, %dx
	sete	%al
	jmp	.L3
.L14:
	.loc 1 18 37
	movzwl	32(%rbp), %edx
	.loc 1 18 53
	movzwl	64(%rbp), %eax
	.loc 1 18 43
	cmpw	%ax, %dx
	sete	%al
	jmp	.L3
.L13:
	.loc 1 19 37
	movl	32(%rbp), %edx
	.loc 1 19 53
	movl	64(%rbp), %eax
	.loc 1 19 43
	cmpl	%eax, %edx
	sete	%al
	jmp	.L3
.L12:
	.loc 1 20 37
	movl	32(%rbp), %edx
	.loc 1 20 53
	movl	64(%rbp), %eax
	.loc 1 20 43
	cmpl	%eax, %edx
	sete	%al
	jmp	.L3
.L11:
	.loc 1 21 37
	movq	32(%rbp), %rdx
	.loc 1 21 53
	movq	64(%rbp), %rax
	.loc 1 21 43
	cmpq	%rax, %rdx
	sete	%al
	jmp	.L3
.L10:
	.loc 1 22 37
	movq	32(%rbp), %rdx
	.loc 1 22 53
	movq	64(%rbp), %rax
	.loc 1 22 43
	cmpq	%rax, %rdx
	sete	%al
	jmp	.L3
.L9:
	.loc 1 23 37
	movss	32(%rbp), %xmm0
	.loc 1 23 53
	movss	64(%rbp), %xmm1
	.loc 1 23 43
	ucomiss	%xmm1, %xmm0
	setnp	%al
	movl	$0, %edx
	ucomiss	%xmm1, %xmm0
	cmovne	%edx, %eax
	jmp	.L3
.L8:
	.loc 1 24 37
	movsd	32(%rbp), %xmm0
	.loc 1 24 53
	movsd	64(%rbp), %xmm1
	.loc 1 24 43
	ucomisd	%xmm1, %xmm0
	setnp	%al
	movl	$0, %edx
	ucomisd	%xmm1, %xmm0
	cmovne	%edx, %eax
	jmp	.L3
.L7:
	.loc 1 25 38
	fldt	32(%rbp)
	.loc 1 25 55
	fldt	64(%rbp)
	.loc 1 25 45
	fucomi	%st(1), %st
	setnp	%al
	movl	$0, %edx
	fucomip	%st(1), %st
	fstp	%st(0)
	cmovne	%edx, %eax
	jmp	.L3
.L4:
	.loc 1 26 31
	movl	$0, %eax
.L3:
	.loc 1 28 1
	popq	%rbp
	.cfi_def_cfa 7, 8
	ret
	.cfi_endproc
.LFE1:
	.size	valuesEqual, .-valuesEqual
	.globl	initValueArray
	.type	initValueArray, @function
initValueArray:
.LFB2:
	.loc 1 30 39
	.cfi_startproc
	endbr64
	pushq	%rbp
	.cfi_def_cfa_offset 16
	.cfi_offset 6, -16
	movq	%rsp, %rbp
	.cfi_def_cfa_register 6
	movq	%rdi, -8(%rbp)
	.loc 1 31 19
	movq	-8(%rbp), %rax
	movq	$0, 8(%rax)
	.loc 1 32 21
	movq	-8(%rbp), %rax
	movw	$0, (%rax)
	.loc 1 33 18
	movq	-8(%rbp), %rax
	movw	$0, 2(%rax)
	.loc 1 34 1
	nop
	popq	%rbp
	.cfi_def_cfa 7, 8
	ret
	.cfi_endproc
.LFE2:
	.size	initValueArray, .-initValueArray
	.globl	writeValueArray
	.type	writeValueArray, @function
writeValueArray:
.LFB3:
	.loc 1 36 53
	.cfi_startproc
	endbr64
	pushq	%rbp
	.cfi_def_cfa_offset 16
	.cfi_offset 6, -16
	movq	%rsp, %rbp
	.cfi_def_cfa_register 6
	subq	$32, %rsp
	movq	%rdi, -24(%rbp)
	.loc 1 37 31
	movq	-24(%rbp), %rax
	movzwl	2(%rax), %edx
	.loc 1 37 13
	movq	-24(%rbp), %rax
	movzwl	(%rax), %eax
	.loc 1 37 7
	cmpw	%ax, %dx
	jl	.L22
.LBB2:
	.loc 1 38 17
	movq	-24(%rbp), %rax
	movzwl	(%rax), %eax
	movw	%ax, -2(%rbp)
	.loc 1 39 25
	cmpw	$7, -2(%rbp)
	jle	.L23
	.loc 1 39 66 discriminator 1
	movzwl	-2(%rbp), %eax
	addl	%eax, %eax
	.loc 1 39 25 discriminator 1
	movl	%eax, %edx
	jmp	.L24
.L23:
	.loc 1 39 25 is_stmt 0 discriminator 2
	movl	$8, %edx
.L24:
	.loc 1 39 25 discriminator 4
	movq	-24(%rbp), %rax
	movw	%dx, (%rax)
	.loc 1 40 112 is_stmt 1 discriminator 4
	movq	-24(%rbp), %rax
	movzwl	(%rax), %eax
	movswq	%ax, %rax
	.loc 1 40 33 discriminator 4
	salq	$5, %rax
	movq	%rax, %rdx
	movswq	-2(%rbp), %rax
	salq	$5, %rax
	movq	%rax, %rcx
	.loc 1 40 49 discriminator 4
	movq	-24(%rbp), %rax
	movq	8(%rax), %rax
	.loc 1 40 33 discriminator 4
	movq	%rcx, %rsi
	movq	%rax, %rdi
	call	reallocate@PLT
	.loc 1 40 23 discriminator 4
	movq	-24(%rbp), %rdx
	movq	%rax, 8(%rdx)
.L22:
.LBE2:
	.loc 1 43 10
	movq	-24(%rbp), %rax
	movq	8(%rax), %rdx
	.loc 1 43 24
	movq	-24(%rbp), %rax
	movzwl	2(%rax), %eax
	movswq	%ax, %rax
	.loc 1 43 18
	salq	$5, %rax
	leaq	(%rdx,%rax), %rcx
	.loc 1 43 33
	movq	16(%rbp), %rax
	movq	24(%rbp), %rdx
	movq	%rax, (%rcx)
	movq	%rdx, 8(%rcx)
	movq	32(%rbp), %rax
	movq	40(%rbp), %rdx
	movq	%rax, 16(%rcx)
	movq	%rdx, 24(%rcx)
	.loc 1 44 10
	movq	-24(%rbp), %rax
	movzwl	2(%rax), %eax
	.loc 1 44 17
	addl	$1, %eax
	movl	%eax, %edx
	movq	-24(%rbp), %rax
	movw	%dx, 2(%rax)
	.loc 1 45 1
	nop
	leave
	.cfi_def_cfa 7, 8
	ret
	.cfi_endproc
.LFE3:
	.size	writeValueArray, .-writeValueArray
	.globl	freeValueArray
	.type	freeValueArray, @function
freeValueArray:
.LFB4:
	.loc 1 47 39
	.cfi_startproc
	endbr64
	pushq	%rbp
	.cfi_def_cfa_offset 16
	.cfi_offset 6, -16
	movq	%rsp, %rbp
	.cfi_def_cfa_register 6
	subq	$16, %rsp
	movq	%rdi, -8(%rbp)
	.loc 1 48 53
	movq	-8(%rbp), %rax
	movzwl	(%rax), %eax
	movswq	%ax, %rax
	.loc 1 48 5
	salq	$5, %rax
	movq	%rax, %rcx
	.loc 1 48 21
	movq	-8(%rbp), %rax
	movq	8(%rax), %rax
	.loc 1 48 5
	movl	$0, %edx
	movq	%rcx, %rsi
	movq	%rax, %rdi
	call	reallocate@PLT
	.loc 1 49 5
	movq	-8(%rbp), %rax
	movq	%rax, %rdi
	call	initValueArray
	.loc 1 50 1
	nop
	leave
	.cfi_def_cfa 7, 8
	ret
	.cfi_endproc
.LFE4:
	.size	freeValueArray, .-freeValueArray
	.section	.rodata
.LC1:
	.string	"true"
.LC2:
	.string	"false"
.LC3:
	.string	"nil"
.LC4:
	.string	"%u"
.LC5:
	.string	"%d"
.LC6:
	.string	"%lu"
.LC7:
	.string	"%f"
.LC8:
	.string	"%g"
.LC9:
	.string	"%Lf"
	.text
	.globl	printValue
	.type	printValue, @function
printValue:
.LFB5:
	.loc 1 52 29
	.cfi_startproc
	endbr64
	pushq	%rbp
	.cfi_def_cfa_offset 16
	.cfi_offset 6, -16
	movq	%rsp, %rbp
	.cfi_def_cfa_register 6
	.loc 1 53 17
	movl	16(%rbp), %eax
	cmpl	$14, %eax
	ja	.L45
	movl	%eax, %eax
	leaq	0(,%rax,4), %rdx
	leaq	.L29(%rip), %rax
	movl	(%rdx,%rax), %eax
	cltq
	leaq	.L29(%rip), %rdx
	addq	%rdx, %rax
	notrack jmp	*%rax
	.section	.rodata
	.align 4
	.align 4
.L29:
	.long	.L45-.L29
	.long	.L42-.L29
	.long	.L41-.L29
	.long	.L40-.L29
	.long	.L39-.L29
	.long	.L38-.L29
	.long	.L37-.L29
	.long	.L36-.L29
	.long	.L35-.L29
	.long	.L34-.L29
	.long	.L33-.L29
	.long	.L32-.L29
	.long	.L31-.L29
	.long	.L30-.L29
	.long	.L28-.L29
	.text
.L41:
	.loc 1 55 31
	movzbl	32(%rbp), %eax
	.loc 1 55 13
	testb	%al, %al
	je	.L43
	.loc 1 55 13 is_stmt 0 discriminator 1
	leaq	.LC1(%rip), %rax
	jmp	.L44
.L43:
	.loc 1 55 13 discriminator 2
	leaq	.LC2(%rip), %rax
.L44:
	.loc 1 55 13 discriminator 4
	movq	%rax, %rdi
	movl	$0, %eax
	call	printf@PLT
	.loc 1 56 13 is_stmt 1 discriminator 4
	jmp	.L27
.L42:
	.loc 1 57 23
	leaq	.LC3(%rip), %rdi
	movl	$0, %eax
	call	printf@PLT
	.loc 1 57 9
	jmp	.L27
.L28:
	.loc 1 58 23
	pushq	40(%rbp)
	pushq	32(%rbp)
	pushq	24(%rbp)
	pushq	16(%rbp)
	call	printObject@PLT
	addq	$32, %rsp
	.loc 1 58 9
	jmp	.L27
.L40:
	.loc 1 59 46
	movzbl	32(%rbp), %eax
	.loc 1 59 22
	movsbl	%al, %eax
	movl	%eax, %edi
	call	putchar@PLT
	.loc 1 59 9
	jmp	.L27
.L39:
	.loc 1 60 46
	movzbl	32(%rbp), %eax
	.loc 1 60 22
	movzbl	%al, %eax
	movl	%eax, %esi
	leaq	.LC4(%rip), %rdi
	movl	$0, %eax
	call	printf@PLT
	.loc 1 60 9
	jmp	.L27
.L38:
	.loc 1 61 47
	movzwl	32(%rbp), %eax
	.loc 1 61 23
	cwtl
	movl	%eax, %esi
	leaq	.LC5(%rip), %rdi
	movl	$0, %eax
	call	printf@PLT
	.loc 1 61 9
	jmp	.L27
.L37:
	.loc 1 62 47
	movzwl	32(%rbp), %eax
	.loc 1 62 23
	movzwl	%ax, %eax
	movl	%eax, %esi
	leaq	.LC4(%rip), %rdi
	movl	$0, %eax
	call	printf@PLT
	.loc 1 62 9
	jmp	.L27
.L36:
	.loc 1 63 23
	movl	32(%rbp), %eax
	movl	%eax, %esi
	leaq	.LC4(%rip), %rdi
	movl	$0, %eax
	call	printf@PLT
	.loc 1 63 9
	jmp	.L27
.L35:
	.loc 1 64 23
	movl	32(%rbp), %eax
	movl	%eax, %esi
	leaq	.LC4(%rip), %rdi
	movl	$0, %eax
	call	printf@PLT
	.loc 1 64 9
	jmp	.L27
.L34:
	.loc 1 65 23
	movq	32(%rbp), %rax
	movq	%rax, %rsi
	leaq	.LC6(%rip), %rdi
	movl	$0, %eax
	call	printf@PLT
	.loc 1 65 9
	jmp	.L27
.L33:
	.loc 1 66 23
	movq	32(%rbp), %rax
	movq	%rax, %rsi
	leaq	.LC6(%rip), %rdi
	movl	$0, %eax
	call	printf@PLT
	.loc 1 66 9
	jmp	.L27
.L32:
	.loc 1 67 47
	movss	32(%rbp), %xmm0
	.loc 1 67 23
	cvtss2sd	%xmm0, %xmm0
	leaq	.LC7(%rip), %rdi
	movl	$1, %eax
	call	printf@PLT
	.loc 1 67 9
	jmp	.L27
.L31:
	.loc 1 68 23
	movq	32(%rbp), %rax
	movq	%rax, %xmm0
	leaq	.LC8(%rip), %rdi
	movl	$1, %eax
	call	printf@PLT
	.loc 1 68 9
	jmp	.L27
.L30:
	.loc 1 69 24
	fldt	32(%rbp)
	leaq	-16(%rsp), %rsp
	fstpt	(%rsp)
	leaq	.LC9(%rip), %rdi
	movl	$0, %eax
	call	printf@PLT
	addq	$16, %rsp
	.loc 1 69 9
	nop
.L27:
.L45:
	.loc 1 72 1
	nop
	leave
	.cfi_def_cfa 7, 8
	ret
	.cfi_endproc
.LFE5:
	.size	printValue, .-printValue
.Letext0:
	.file 2 "/usr/lib/gcc/x86_64-linux-gnu/9/include/stddef.h"
	.file 3 "/usr/include/x86_64-linux-gnu/bits/types.h"
	.file 4 "/usr/include/x86_64-linux-gnu/bits/stdint-intn.h"
	.file 5 "/usr/include/x86_64-linux-gnu/bits/stdint-uintn.h"
	.file 6 "Bytecode/value/../memory/../../Language/object/object.h"
	.file 7 "Bytecode/value/value.h"
	.file 8 "/usr/include/x86_64-linux-gnu/bits/types/struct_FILE.h"
	.file 9 "/usr/include/x86_64-linux-gnu/bits/types/FILE.h"
	.file 10 "/usr/include/stdio.h"
	.section	.note.GNU-stack,"",@progbits
	.section	.note.gnu.property,"a"
	.align 8
	.long	 1f - 0f
	.long	 4f - 1f
	.long	 5
0:
	.string	 "GNU"
1:
	.align 8
	.long	 0xc0000002
	.long	 3f - 2f
2:
	.long	 0x3
3:
	.align 8
4:
